target datalayout = "e-m:e-p270:32:32-p271:32:32-p272:64:64-i64:64-i128:128-f80:128-n8:16:32:64-S128"
target triple = "x86_64-unknown-linux-gnu"

%"class.icu_75::SearchIterator" = type { %"class.icu_75::UObject", ptr, ptr, %"class.icu_75::UnicodeString" }
%"class.icu_75::UObject" = type { ptr }
%"class.icu_75::UnicodeString" = type { %"class.icu_75::Replaceable", %"union.icu_75::UnicodeString::StackBufferOrFields" }
%"class.icu_75::Replaceable" = type { %"class.icu_75::UObject" }
%"union.icu_75::UnicodeString::StackBufferOrFields" = type { %struct.anon.0, [32 x i8] }
%struct.anon.0 = type { i16, i32, i32, ptr }
%struct.USearch = type { ptr, i32, i8, i8, i16, ptr, ptr, i32, i32, i8, i8 }

; Function Attrs: mustprogress uwtable
define noundef zeroext i1 @_ZNK6icu_7514SearchIteratoreqERKS0_(ptr noundef nonnull align 8 dereferenceable(88) %this, ptr noundef nonnull align 8 dereferenceable(88) %that) unnamed_addr #0 align 2 {
entry:
  %retval = alloca i1, align 1
  %this.addr = alloca ptr, align 8
  %that.addr = alloca ptr, align 8
  store ptr %this, ptr %this.addr, align 8
  store ptr %that, ptr %that.addr, align 8
  %this1 = load ptr, ptr %this.addr, align 8
  %0 = load ptr, ptr %that.addr, align 8
  %cmp = icmp eq ptr %this1, %0
  br i1 %cmp, label %if.then, label %if.end

if.then:                                          ; preds = %entry
  store i1 true, ptr %retval, align 1
  br label %return

if.end:                                           ; preds = %entry
  %m_breakiterator_ = getelementptr inbounds %"class.icu_75::SearchIterator", ptr %this1, i32 0, i32 2
  %1 = load ptr, ptr %m_breakiterator_, align 8
  %2 = load ptr, ptr %that.addr, align 8
  %m_breakiterator_2 = getelementptr inbounds %"class.icu_75::SearchIterator", ptr %2, i32 0, i32 2
  %3 = load ptr, ptr %m_breakiterator_2, align 8
  %cmp3 = icmp eq ptr %1, %3
  br i1 %cmp3, label %land.lhs.true, label %land.end

land.lhs.true:                                    ; preds = %if.end
  %m_search_ = getelementptr inbounds %"class.icu_75::SearchIterator", ptr %this1, i32 0, i32 1
  %4 = load ptr, ptr %m_search_, align 8
  %isCanonicalMatch = getelementptr inbounds %struct.USearch, ptr %4, i32 0, i32 3
  %5 = load i8, ptr %isCanonicalMatch, align 1
  %conv = sext i8 %5 to i32
  %6 = load ptr, ptr %that.addr, align 8
  %m_search_4 = getelementptr inbounds %"class.icu_75::SearchIterator", ptr %6, i32 0, i32 1
  %7 = load ptr, ptr %m_search_4, align 8
  %isCanonicalMatch5 = getelementptr inbounds %struct.USearch, ptr %7, i32 0, i32 3
  %8 = load i8, ptr %isCanonicalMatch5, align 1
  %conv6 = sext i8 %8 to i32
  %cmp7 = icmp eq i32 %conv, %conv6
  br i1 %cmp7, label %land.lhs.true8, label %land.end

land.lhs.true8:                                   ; preds = %land.lhs.true
  %m_search_9 = getelementptr inbounds %"class.icu_75::SearchIterator", ptr %this1, i32 0, i32 1
  %9 = load ptr, ptr %m_search_9, align 8
  %isOverlap = getelementptr inbounds %struct.USearch, ptr %9, i32 0, i32 2
  %10 = load i8, ptr %isOverlap, align 4
  %conv10 = sext i8 %10 to i32
  %11 = load ptr, ptr %that.addr, align 8
  %m_search_11 = getelementptr inbounds %"class.icu_75::SearchIterator", ptr %11, i32 0, i32 1
  %12 = load ptr, ptr %m_search_11, align 8
  %isOverlap12 = getelementptr inbounds %struct.USearch, ptr %12, i32 0, i32 2
  %13 = load i8, ptr %isOverlap12, align 4
  %conv13 = sext i8 %13 to i32
  %cmp14 = icmp eq i32 %conv10, %conv13
  br i1 %cmp14, label %land.lhs.true15, label %land.end

land.lhs.true15:                                  ; preds = %land.lhs.true8
  %m_search_16 = getelementptr inbounds %"class.icu_75::SearchIterator", ptr %this1, i32 0, i32 1
  %14 = load ptr, ptr %m_search_16, align 8
  %elementComparisonType = getelementptr inbounds %struct.USearch, ptr %14, i32 0, i32 4
  %15 = load i16, ptr %elementComparisonType, align 2
  %conv17 = sext i16 %15 to i32
  %16 = load ptr, ptr %that.addr, align 8
  %m_search_18 = getelementptr inbounds %"class.icu_75::SearchIterator", ptr %16, i32 0, i32 1
  %17 = load ptr, ptr %m_search_18, align 8
  %elementComparisonType19 = getelementptr inbounds %struct.USearch, ptr %17, i32 0, i32 4
  %18 = load i16, ptr %elementComparisonType19, align 2
  %conv20 = sext i16 %18 to i32
  %cmp21 = icmp eq i32 %conv17, %conv20
  br i1 %cmp21, label %land.lhs.true22, label %land.end

land.lhs.true22:                                  ; preds = %land.lhs.true15
  %m_search_23 = getelementptr inbounds %"class.icu_75::SearchIterator", ptr %this1, i32 0, i32 1
  %19 = load ptr, ptr %m_search_23, align 8
  %matchedIndex = getelementptr inbounds %struct.USearch, ptr %19, i32 0, i32 7
  %20 = load i32, ptr %matchedIndex, align 8
  %21 = load ptr, ptr %that.addr, align 8
  %m_search_24 = getelementptr inbounds %"class.icu_75::SearchIterator", ptr %21, i32 0, i32 1
  %22 = load ptr, ptr %m_search_24, align 8
  %matchedIndex25 = getelementptr inbounds %struct.USearch, ptr %22, i32 0, i32 7
  %23 = load i32, ptr %matchedIndex25, align 8
  %cmp26 = icmp eq i32 %20, %23
  br i1 %cmp26, label %land.lhs.true27, label %land.end

land.lhs.true27:                                  ; preds = %land.lhs.true22
  %m_search_28 = getelementptr inbounds %"class.icu_75::SearchIterator", ptr %this1, i32 0, i32 1
  %24 = load ptr, ptr %m_search_28, align 8
  %matchedLength = getelementptr inbounds %struct.USearch, ptr %24, i32 0, i32 8
  %25 = load i32, ptr %matchedLength, align 4
  %26 = load ptr, ptr %that.addr, align 8
  %m_search_29 = getelementptr inbounds %"class.icu_75::SearchIterator", ptr %26, i32 0, i32 1
  %27 = load ptr, ptr %m_search_29, align 8
  %matchedLength30 = getelementptr inbounds %struct.USearch, ptr %27, i32 0, i32 8
  %28 = load i32, ptr %matchedLength30, align 4
  %cmp31 = icmp eq i32 %25, %28
  br i1 %cmp31, label %land.lhs.true32, label %land.end

land.lhs.true32:                                  ; preds = %land.lhs.true27
  %m_search_33 = getelementptr inbounds %"class.icu_75::SearchIterator", ptr %this1, i32 0, i32 1
  %29 = load ptr, ptr %m_search_33, align 8
  %textLength = getelementptr inbounds %struct.USearch, ptr %29, i32 0, i32 1
  %30 = load i32, ptr %textLength, align 8
  %31 = load ptr, ptr %that.addr, align 8
  %m_search_34 = getelementptr inbounds %"class.icu_75::SearchIterator", ptr %31, i32 0, i32 1
  %32 = load ptr, ptr %m_search_34, align 8
  %textLength35 = getelementptr inbounds %struct.USearch, ptr %32, i32 0, i32 1
  %33 = load i32, ptr %textLength35, align 8
  %cmp36 = icmp eq i32 %30, %33
  br i1 %cmp36, label %land.lhs.true37, label %land.end

land.lhs.true37:                                  ; preds = %land.lhs.true32
  %vtable = load ptr, ptr %this1, align 8
  %vfn = getelementptr inbounds ptr, ptr %vtable, i64 4
  %34 = load ptr, ptr %vfn, align 8
  %call = call noundef i32 %34(ptr noundef nonnull align 8 dereferenceable(88) %this1)
  %35 = load ptr, ptr %that.addr, align 8
  %vtable38 = load ptr, ptr %35, align 8
  %vfn39 = getelementptr inbounds ptr, ptr %vtable38, i64 4
  %36 = load ptr, ptr %vfn39, align 8
  %call40 = call noundef i32 %36(ptr noundef nonnull align 8 dereferenceable(88) %35)
  %cmp41 = icmp eq i32 %call, %call40
  br i1 %cmp41, label %land.rhs, label %land.end

land.rhs:                                         ; preds = %land.lhs.true37
  %m_search_42 = getelementptr inbounds %"class.icu_75::SearchIterator", ptr %this1, i32 0, i32 1
  %37 = load ptr, ptr %m_search_42, align 8
  %textLength43 = getelementptr inbounds %struct.USearch, ptr %37, i32 0, i32 1
  %38 = load i32, ptr %textLength43, align 8
  %cmp44 = icmp eq i32 %38, 0
  br i1 %cmp44, label %lor.end, label %lor.rhs

lor.rhs:                                          ; preds = %land.rhs
  %m_search_45 = getelementptr inbounds %"class.icu_75::SearchIterator", ptr %this1, i32 0, i32 1
  %39 = load ptr, ptr %m_search_45, align 8
  %text = getelementptr inbounds %struct.USearch, ptr %39, i32 0, i32 0
  %40 = load ptr, ptr %text, align 8
  %41 = load ptr, ptr %that.addr, align 8
  %m_search_46 = getelementptr inbounds %"class.icu_75::SearchIterator", ptr %41, i32 0, i32 1
  %42 = load ptr, ptr %m_search_46, align 8
  %text47 = getelementptr inbounds %struct.USearch, ptr %42, i32 0, i32 0
  %43 = load ptr, ptr %text47, align 8
  %m_search_48 = getelementptr inbounds %"class.icu_75::SearchIterator", ptr %this1, i32 0, i32 1
  %44 = load ptr, ptr %m_search_48, align 8
  %textLength49 = getelementptr inbounds %struct.USearch, ptr %44, i32 0, i32 1
  %45 = load i32, ptr %textLength49, align 8
  %conv50 = sext i32 %45 to i64
  %mul = mul i64 %conv50, 2
  %call51 = call i32 @memcmp(ptr noundef %40, ptr noundef %43, i64 noundef %mul) #11
  %cmp52 = icmp eq i32 %call51, 0
  br label %lor.end

lor.end:                                          ; preds = %lor.rhs, %land.rhs
  %46 = phi i1 [ true, %land.rhs ], [ %cmp52, %lor.rhs ]
  br label %land.end

land.end:                                         ; preds = %lor.end, %land.lhs.true37, %land.lhs.true32, %land.lhs.true27, %land.lhs.true22, %land.lhs.true15, %land.lhs.true8, %land.lhs.true, %if.end
  %47 = phi i1 [ false, %land.lhs.true37 ], [ false, %land.lhs.true32 ], [ false, %land.lhs.true27 ], [ false, %land.lhs.true22 ], [ false, %land.lhs.true15 ], [ false, %land.lhs.true8 ], [ false, %land.lhs.true ], [ false, %if.end ], [ %46, %lor.end ]
  store i1 %47, ptr %retval, align 1
  br label %return

return:                                           ; preds = %land.end, %if.then
  %48 = load i1, ptr %retval, align 1
  ret i1 %48
}