; Function Attrs: mustprogress uwtable
define noundef zeroext i1 @_ZNK6icu_7514SearchIteratoreqERKS0_(ptr noundef nonnull align 8 dereferenceable(88) %this, ptr noundef nonnull align 8 dereferenceable(88) %that) unnamed_addr #0 align 2 {
entry:
  %cmp = icmp eq ptr %this, %that
  br i1 %cmp, label %return, label %if.end

if.end:                                           ; preds = %entry
  %m_breakiterator_ = getelementptr inbounds i8, ptr %this, i64 16
  %0 = load ptr, ptr %m_breakiterator_, align 8
  %m_breakiterator_2 = getelementptr inbounds i8, ptr %that, i64 16
  %1 = load ptr, ptr %m_breakiterator_2, align 8
  %cmp3 = icmp eq ptr %0, %1
  br i1 %cmp3, label %land.lhs.true, label %return

land.lhs.true:                                    ; preds = %if.end
  %m_search_ = getelementptr inbounds i8, ptr %this, i64 8
  %2 = load ptr, ptr %m_search_, align 8
  %isCanonicalMatch = getelementptr inbounds i8, ptr %2, i64 13
  %3 = load i8, ptr %isCanonicalMatch, align 1
  %m_search_4 = getelementptr inbounds i8, ptr %that, i64 8
  %4 = load ptr, ptr %m_search_4, align 8
  %isCanonicalMatch5 = getelementptr inbounds i8, ptr %4, i64 13
  %5 = load i8, ptr %isCanonicalMatch5, align 1
  %cmp7 = icmp eq i8 %3, %5
  br i1 %cmp7, label %land.lhs.true8, label %return

land.lhs.true8:                                   ; preds = %land.lhs.true
  %isOverlap = getelementptr inbounds i8, ptr %2, i64 12
  %6 = load i8, ptr %isOverlap, align 4
  %isOverlap12 = getelementptr inbounds i8, ptr %4, i64 12
  %7 = load i8, ptr %isOverlap12, align 4
  %cmp14 = icmp eq i8 %6, %7
  br i1 %cmp14, label %land.lhs.true15, label %return

land.lhs.true15:                                  ; preds = %land.lhs.true8
  %elementComparisonType = getelementptr inbounds i8, ptr %2, i64 14
  %8 = load i16, ptr %elementComparisonType, align 2
  %elementComparisonType19 = getelementptr inbounds i8, ptr %4, i64 14
  %9 = load i16, ptr %elementComparisonType19, align 2
  %cmp21 = icmp eq i16 %8, %9
  br i1 %cmp21, label %land.lhs.true22, label %return

land.lhs.true22:                                  ; preds = %land.lhs.true15
  %matchedIndex = getelementptr inbounds i8, ptr %2, i64 32
  %10 = load i32, ptr %matchedIndex, align 8
  %matchedIndex25 = getelementptr inbounds i8, ptr %4, i64 32
  %11 = load i32, ptr %matchedIndex25, align 8
  %cmp26 = icmp eq i32 %10, %11
  br i1 %cmp26, label %land.lhs.true27, label %return

land.lhs.true27:                                  ; preds = %land.lhs.true22
  %matchedLength = getelementptr inbounds i8, ptr %2, i64 36
  %12 = load i32, ptr %matchedLength, align 4
  %matchedLength30 = getelementptr inbounds i8, ptr %4, i64 36
  %13 = load i32, ptr %matchedLength30, align 4
  %cmp31 = icmp eq i32 %12, %13
  br i1 %cmp31, label %land.lhs.true32, label %return

land.lhs.true32:                                  ; preds = %land.lhs.true27
  %textLength = getelementptr inbounds i8, ptr %2, i64 8
  %14 = load i32, ptr %textLength, align 8
  %textLength35 = getelementptr inbounds i8, ptr %4, i64 8
  %15 = load i32, ptr %textLength35, align 8
  %cmp36 = icmp eq i32 %14, %15
  br i1 %cmp36, label %land.lhs.true37, label %return

land.lhs.true37:                                  ; preds = %land.lhs.true32
  %vtable = load ptr, ptr %this, align 8
  %vfn = getelementptr inbounds i8, ptr %vtable, i64 32
  %16 = load ptr, ptr %vfn, align 8
  %call = tail call noundef i32 %16(ptr noundef nonnull align 8 dereferenceable(88) %this)
  %vtable38 = load ptr, ptr %that, align 8
  %vfn39 = getelementptr inbounds i8, ptr %vtable38, i64 32
  %17 = load ptr, ptr %vfn39, align 8
  %call40 = tail call noundef i32 %17(ptr noundef nonnull align 8 dereferenceable(88) %that)
  %cmp41 = icmp eq i32 %call, %call40
  br i1 %cmp41, label %land.rhs, label %return

land.rhs:                                         ; preds = %land.lhs.true37
  %18 = load ptr, ptr %m_search_, align 8
  %textLength43 = getelementptr inbounds i8, ptr %18, i64 8
  %19 = load i32, ptr %textLength43, align 8
  %cmp44 = icmp eq i32 %19, 0
  br i1 %cmp44, label %return, label %lor.rhs

lor.rhs:                                          ; preds = %land.rhs
  %20 = load ptr, ptr %18, align 8
  %21 = load ptr, ptr %m_search_4, align 8
  %22 = load ptr, ptr %21, align 8
  %conv50 = sext i32 %19 to i64
  %mul = shl nsw i64 %conv50, 1
  %bcmp = tail call i32 @bcmp(ptr %20, ptr %22, i64 %mul)
  %cmp52 = icmp eq i32 %bcmp, 0
  br label %return

return:                                           ; preds = %if.end, %land.lhs.true, %land.lhs.true8, %land.lhs.true15, %land.lhs.true22, %land.lhs.true27, %land.lhs.true32, %land.lhs.true37, %lor.rhs, %land.rhs, %entry
  %retval.0 = phi i1 [ true, %entry ], [ false, %land.lhs.true37 ], [ false, %land.lhs.true32 ], [ false, %land.lhs.true27 ], [ false, %land.lhs.true22 ], [ false, %land.lhs.true15 ], [ false, %land.lhs.true8 ], [ false, %land.lhs.true ], [ false, %if.end ], [ true, %land.rhs ], [ %cmp52, %lor.rhs ]
  ret i1 %retval.0
}